; Function Attrs: nounwind uwtable
define internal fastcc noalias nonnull ptr @_init_l___private_Lean_Meta_Tactic_Grind_EMatchTheorem_0__Lean_Meta_Grind_normConfig___closed__1() unnamed_addr #1 {
  tail call void @lean_inc_heartbeat() #9
  %1 = tail call noalias ptr @mi_malloc_small(i64 noundef 88) #9
  %2 = icmp eq ptr %1, null
  br i1 %2, label %3, label %lean_alloc_ctor.exit

3:                                                ; preds = %0
  tail call void @lean_internal_panic_out_of_memory() #10
  unreachable

lean_alloc_ctor.exit:                             ; preds = %0
  %4 = getelementptr inbounds nuw i8, ptr %1, i64 4
  %5 = getelementptr inbounds nuw i8, ptr %1, i64 80
  store i64 1, ptr %5, align 8, !tbaa !12
  store i32 1, ptr %1, align 4, !tbaa !4
  store i32 458840, ptr %4, align 4
  %6 = getelementptr inbounds nuw i8, ptr %1, i64 8
  store ptr inttoptr (i64 17 to ptr), ptr %6, align 8, !tbaa !9
  %7 = getelementptr inbounds nuw i8, ptr %1, i64 16
  store ptr inttoptr (i64 11 to ptr), ptr %7, align 8, !tbaa !9
  %8 = getelementptr inbounds nuw i8, ptr %1, i64 24
  store ptr inttoptr (i64 11 to ptr), ptr %8, align 8, !tbaa !9
  %9 = getelementptr inbounds nuw i8, ptr %1, i64 32
  store ptr inttoptr (i64 2001 to ptr), ptr %9, align 8, !tbaa !9
  %10 = getelementptr inbounds nuw i8, ptr %1, i64 40
  store ptr inttoptr (i64 3 to ptr), ptr %10, align 8, !tbaa !9
  %11 = getelementptr inbounds nuw i8, ptr %1, i64 48
  store ptr inttoptr (i64 2001 to ptr), ptr %11, align 8, !tbaa !9
  %12 = getelementptr inbounds nuw i8, ptr %1, i64 56
  store ptr inttoptr (i64 20001 to ptr), ptr %12, align 8, !tbaa !9
  %13 = getelementptr inbounds nuw i8, ptr %1, i64 64
  store i8 0, ptr %13, align 1, !tbaa !18
  %14 = getelementptr inbounds nuw i8, ptr %1, i64 65
  store i8 1, ptr %14, align 1, !tbaa !18
  %15 = getelementptr inbounds nuw i8, ptr %1, i64 66
  store i8 1, ptr %15, align 1, !tbaa !18
  %16 = getelementptr inbounds nuw i8, ptr %1, i64 67
  store i8 1, ptr %16, align 1, !tbaa !18
  %17 = getelementptr inbounds nuw i8, ptr %1, i64 68
  store i8 0, ptr %17, align 1, !tbaa !18
  %18 = getelementptr inbounds nuw i8, ptr %1, i64 69
  store i8 0, ptr %18, align 1, !tbaa !18
  %19 = getelementptr inbounds nuw i8, ptr %1, i64 70
  store i8 1, ptr %19, align 1, !tbaa !18
  %20 = getelementptr inbounds nuw i8, ptr %1, i64 71
  store i8 0, ptr %20, align 1, !tbaa !18
  %21 = getelementptr inbounds nuw i8, ptr %1, i64 72
  %22 = getelementptr inbounds nuw i8, ptr %1, i64 77
  tail call void @llvm.memset.p0.i64(ptr noundef nonnull align 1 dereferenceable(5) %21, i8 1, i64 5, i1 false)
  store i8 0, ptr %22, align 1, !tbaa !18
  %23 = getelementptr inbounds nuw i8, ptr %1, i64 78
  store i8 1, ptr %23, align 1, !tbaa !18
  %24 = getelementptr inbounds nuw i8, ptr %1, i64 79
  store i8 1, ptr %24, align 1, !tbaa !18
  ret ptr %1
}